
shellcode3:     file format elf64-x86-64


Disassembly of section .init:

0000000000401000 <_init>:
  401000:	f3 0f 1e fa          	endbr64 
  401004:	48 83 ec 08          	sub    rsp,0x8
  401008:	48 8b 05 e9 2f 00 00 	mov    rax,QWORD PTR [rip+0x2fe9]        # 403ff8 <__gmon_start__@Base>
  40100f:	48 85 c0             	test   rax,rax
  401012:	74 02                	je     401016 <_init+0x16>
  401014:	ff d0                	call   rax
  401016:	48 83 c4 08          	add    rsp,0x8
  40101a:	c3                   	ret    

Disassembly of section .plt:

0000000000401020 <.plt>:
  401020:	ff 35 e2 2f 00 00    	push   QWORD PTR [rip+0x2fe2]        # 404008 <_GLOBAL_OFFSET_TABLE_+0x8>
  401026:	f2 ff 25 e3 2f 00 00 	bnd jmp QWORD PTR [rip+0x2fe3]        # 404010 <_GLOBAL_OFFSET_TABLE_+0x10>
  40102d:	0f 1f 00             	nop    DWORD PTR [rax]
  401030:	f3 0f 1e fa          	endbr64 
  401034:	68 00 00 00 00       	push   0x0
  401039:	f2 e9 e1 ff ff ff    	bnd jmp 401020 <_init+0x20>
  40103f:	90                   	nop
  401040:	f3 0f 1e fa          	endbr64 
  401044:	68 01 00 00 00       	push   0x1
  401049:	f2 e9 d1 ff ff ff    	bnd jmp 401020 <_init+0x20>
  40104f:	90                   	nop
  401050:	f3 0f 1e fa          	endbr64 
  401054:	68 02 00 00 00       	push   0x2
  401059:	f2 e9 c1 ff ff ff    	bnd jmp 401020 <_init+0x20>
  40105f:	90                   	nop
  401060:	f3 0f 1e fa          	endbr64 
  401064:	68 03 00 00 00       	push   0x3
  401069:	f2 e9 b1 ff ff ff    	bnd jmp 401020 <_init+0x20>
  40106f:	90                   	nop

Disassembly of section .plt.sec:

0000000000401070 <puts@plt>:
  401070:	f3 0f 1e fa          	endbr64 
  401074:	f2 ff 25 9d 2f 00 00 	bnd jmp QWORD PTR [rip+0x2f9d]        # 404018 <puts@GLIBC_2.2.5>
  40107b:	0f 1f 44 00 00       	nop    DWORD PTR [rax+rax*1+0x0]

0000000000401080 <read@plt>:
  401080:	f3 0f 1e fa          	endbr64 
  401084:	f2 ff 25 95 2f 00 00 	bnd jmp QWORD PTR [rip+0x2f95]        # 404020 <read@GLIBC_2.2.5>
  40108b:	0f 1f 44 00 00       	nop    DWORD PTR [rax+rax*1+0x0]

0000000000401090 <setvbuf@plt>:
  401090:	f3 0f 1e fa          	endbr64 
  401094:	f2 ff 25 8d 2f 00 00 	bnd jmp QWORD PTR [rip+0x2f8d]        # 404028 <setvbuf@GLIBC_2.2.5>
  40109b:	0f 1f 44 00 00       	nop    DWORD PTR [rax+rax*1+0x0]

00000000004010a0 <exit@plt>:
  4010a0:	f3 0f 1e fa          	endbr64 
  4010a4:	f2 ff 25 85 2f 00 00 	bnd jmp QWORD PTR [rip+0x2f85]        # 404030 <exit@GLIBC_2.2.5>
  4010ab:	0f 1f 44 00 00       	nop    DWORD PTR [rax+rax*1+0x0]

Disassembly of section .text:

00000000004010b0 <_start>:
  4010b0:	f3 0f 1e fa          	endbr64 
  4010b4:	31 ed                	xor    ebp,ebp
  4010b6:	49 89 d1             	mov    r9,rdx
  4010b9:	5e                   	pop    rsi
  4010ba:	48 89 e2             	mov    rdx,rsp
  4010bd:	48 83 e4 f0          	and    rsp,0xfffffffffffffff0
  4010c1:	50                   	push   rax
  4010c2:	54                   	push   rsp
  4010c3:	45 31 c0             	xor    r8d,r8d
  4010c6:	31 c9                	xor    ecx,ecx
  4010c8:	48 c7 c7 fb 11 40 00 	mov    rdi,0x4011fb
  4010cf:	ff 15 1b 2f 00 00    	call   QWORD PTR [rip+0x2f1b]        # 403ff0 <__libc_start_main@GLIBC_2.34>
  4010d5:	f4                   	hlt    
  4010d6:	66 2e 0f 1f 84 00 00 	cs nop WORD PTR [rax+rax*1+0x0]
  4010dd:	00 00 00 

00000000004010e0 <_dl_relocate_static_pie>:
  4010e0:	f3 0f 1e fa          	endbr64 
  4010e4:	c3                   	ret    
  4010e5:	66 2e 0f 1f 84 00 00 	cs nop WORD PTR [rax+rax*1+0x0]
  4010ec:	00 00 00 
  4010ef:	90                   	nop

00000000004010f0 <deregister_tm_clones>:
  4010f0:	b8 48 40 40 00       	mov    eax,0x404048
  4010f5:	48 3d 48 40 40 00    	cmp    rax,0x404048
  4010fb:	74 13                	je     401110 <deregister_tm_clones+0x20>
  4010fd:	b8 00 00 00 00       	mov    eax,0x0
  401102:	48 85 c0             	test   rax,rax
  401105:	74 09                	je     401110 <deregister_tm_clones+0x20>
  401107:	bf 48 40 40 00       	mov    edi,0x404048
  40110c:	ff e0                	jmp    rax
  40110e:	66 90                	xchg   ax,ax
  401110:	c3                   	ret    
  401111:	66 66 2e 0f 1f 84 00 	data16 cs nop WORD PTR [rax+rax*1+0x0]
  401118:	00 00 00 00 
  40111c:	0f 1f 40 00          	nop    DWORD PTR [rax+0x0]

0000000000401120 <register_tm_clones>:
  401120:	be 48 40 40 00       	mov    esi,0x404048
  401125:	48 81 ee 48 40 40 00 	sub    rsi,0x404048
  40112c:	48 89 f0             	mov    rax,rsi
  40112f:	48 c1 ee 3f          	shr    rsi,0x3f
  401133:	48 c1 f8 03          	sar    rax,0x3
  401137:	48 01 c6             	add    rsi,rax
  40113a:	48 d1 fe             	sar    rsi,1
  40113d:	74 11                	je     401150 <register_tm_clones+0x30>
  40113f:	b8 00 00 00 00       	mov    eax,0x0
  401144:	48 85 c0             	test   rax,rax
  401147:	74 07                	je     401150 <register_tm_clones+0x30>
  401149:	bf 48 40 40 00       	mov    edi,0x404048
  40114e:	ff e0                	jmp    rax
  401150:	c3                   	ret    
  401151:	66 66 2e 0f 1f 84 00 	data16 cs nop WORD PTR [rax+rax*1+0x0]
  401158:	00 00 00 00 
  40115c:	0f 1f 40 00          	nop    DWORD PTR [rax+0x0]

0000000000401160 <__do_global_dtors_aux>:
  401160:	f3 0f 1e fa          	endbr64 
  401164:	80 3d 1d 2f 00 00 00 	cmp    BYTE PTR [rip+0x2f1d],0x0        # 404088 <completed.0>
  40116b:	75 13                	jne    401180 <__do_global_dtors_aux+0x20>
  40116d:	55                   	push   rbp
  40116e:	48 89 e5             	mov    rbp,rsp
  401171:	e8 7a ff ff ff       	call   4010f0 <deregister_tm_clones>
  401176:	c6 05 0b 2f 00 00 01 	mov    BYTE PTR [rip+0x2f0b],0x1        # 404088 <completed.0>
  40117d:	5d                   	pop    rbp
  40117e:	c3                   	ret    
  40117f:	90                   	nop
  401180:	c3                   	ret    
  401181:	66 66 2e 0f 1f 84 00 	data16 cs nop WORD PTR [rax+rax*1+0x0]
  401188:	00 00 00 00 
  40118c:	0f 1f 40 00          	nop    DWORD PTR [rax+0x0]

0000000000401190 <frame_dummy>:
  401190:	f3 0f 1e fa          	endbr64 
  401194:	eb 8a                	jmp    401120 <register_tm_clones>

0000000000401196 <init>:
  401196:	f3 0f 1e fa          	endbr64 
  40119a:	55                   	push   rbp
  40119b:	48 89 e5             	mov    rbp,rsp
  40119e:	48 8b 05 cb 2e 00 00 	mov    rax,QWORD PTR [rip+0x2ecb]        # 404070 <stdin@GLIBC_2.2.5>
  4011a5:	b9 00 00 00 00       	mov    ecx,0x0
  4011aa:	ba 02 00 00 00       	mov    edx,0x2
  4011af:	be 00 00 00 00       	mov    esi,0x0
  4011b4:	48 89 c7             	mov    rdi,rax
  4011b7:	e8 d4 fe ff ff       	call   401090 <setvbuf@plt>
  4011bc:	48 8b 05 9d 2e 00 00 	mov    rax,QWORD PTR [rip+0x2e9d]        # 404060 <stdout@GLIBC_2.2.5>
  4011c3:	b9 00 00 00 00       	mov    ecx,0x0
  4011c8:	ba 02 00 00 00       	mov    edx,0x2
  4011cd:	be 00 00 00 00       	mov    esi,0x0
  4011d2:	48 89 c7             	mov    rdi,rax
  4011d5:	e8 b6 fe ff ff       	call   401090 <setvbuf@plt>
  4011da:	48 8b 05 9f 2e 00 00 	mov    rax,QWORD PTR [rip+0x2e9f]        # 404080 <stderr@GLIBC_2.2.5>
  4011e1:	b9 00 00 00 00       	mov    ecx,0x0
  4011e6:	ba 02 00 00 00       	mov    edx,0x2
  4011eb:	be 00 00 00 00       	mov    esi,0x0
  4011f0:	48 89 c7             	mov    rdi,rax
  4011f3:	e8 98 fe ff ff       	call   401090 <setvbuf@plt>
  4011f8:	90                   	nop
  4011f9:	5d                   	pop    rbp
  4011fa:	c3                   	ret    

00000000004011fb <main>:
  4011fb:	f3 0f 1e fa          	endbr64 
  4011ff:	55                   	push   rbp
  401200:	48 89 e5             	mov    rbp,rsp
  401203:	48 81 ec b0 00 00 00 	sub    rsp,0xb0
  40120a:	b8 00 00 00 00       	mov    eax,0x0
  40120f:	e8 82 ff ff ff       	call   401196 <init>
  401214:	48 8d 05 ed 0d 00 00 	lea    rax,[rip+0xded]        # 402008 <_IO_stdin_used+0x8>
  40121b:	48 89 c7             	mov    rdi,rax
  40121e:	e8 4d fe ff ff       	call   401070 <puts@plt>
  401223:	48 8d 05 06 0e 00 00 	lea    rax,[rip+0xe06]        # 402030 <_IO_stdin_used+0x30>
  40122a:	48 89 c7             	mov    rdi,rax
  40122d:	e8 3e fe ff ff       	call   401070 <puts@plt>
  401232:	48 8d 05 37 0e 00 00 	lea    rax,[rip+0xe37]        # 402070 <_IO_stdin_used+0x70>
  401239:	48 89 c7             	mov    rdi,rax
  40123c:	e8 2f fe ff ff       	call   401070 <puts@plt>
  401241:	48 8d 05 70 0e 00 00 	lea    rax,[rip+0xe70]        # 4020b8 <_IO_stdin_used+0xb8>
  401248:	48 89 c7             	mov    rdi,rax
  40124b:	e8 20 fe ff ff       	call   401070 <puts@plt>
  401250:	48 8d 85 50 ff ff ff 	lea    rax,[rbp-0xb0]
  401257:	ba 96 00 00 00       	mov    edx,0x96
  40125c:	48 89 c6             	mov    rsi,rax
  40125f:	bf 00 00 00 00       	mov    edi,0x0
  401264:	b8 00 00 00 00       	mov    eax,0x0
  401269:	e8 12 fe ff ff       	call   401080 <read@plt>
  40126e:	c7 45 fc 00 00 00 00 	mov    DWORD PTR [rbp-0x4],0x0
  401275:	eb 2e                	jmp    4012a5 <main+0xaa>
  401277:	8b 45 fc             	mov    eax,DWORD PTR [rbp-0x4]
  40127a:	48 98                	cdqe   
  40127c:	0f b6 84 05 50 ff ff 	movzx  eax,BYTE PTR [rbp+rax*1-0xb0]
  401283:	ff 
  401284:	3c 90                	cmp    al,0x90
  401286:	75 19                	jne    4012a1 <main+0xa6>
  401288:	48 8d 05 61 0e 00 00 	lea    rax,[rip+0xe61]        # 4020f0 <_IO_stdin_used+0xf0>
  40128f:	48 89 c7             	mov    rdi,rax
  401292:	e8 d9 fd ff ff       	call   401070 <puts@plt>
  401297:	bf 00 00 00 00       	mov    edi,0x0
  40129c:	e8 ff fd ff ff       	call   4010a0 <exit@plt>
  4012a1:	83 45 fc 01          	add    DWORD PTR [rbp-0x4],0x1
  4012a5:	81 7d fc 95 00 00 00 	cmp    DWORD PTR [rbp-0x4],0x95
  4012ac:	7e c9                	jle    401277 <main+0x7c>
  4012ae:	c7 45 f8 00 00 00 00 	mov    DWORD PTR [rbp-0x8],0x0
  4012b5:	eb 7d                	jmp    401334 <main+0x139>
  4012b7:	8b 55 f8             	mov    edx,DWORD PTR [rbp-0x8]
  4012ba:	89 d0                	mov    eax,edx
  4012bc:	01 c0                	add    eax,eax
  4012be:	01 d0                	add    eax,edx
  4012c0:	01 c0                	add    eax,eax
  4012c2:	48 98                	cdqe   
  4012c4:	0f b6 84 05 50 ff ff 	movzx  eax,BYTE PTR [rbp+rax*1-0xb0]
  4012cb:	ff 
  4012cc:	3c 0c                	cmp    al,0xc
  4012ce:	74 60                	je     401330 <main+0x135>
  4012d0:	8b 55 f8             	mov    edx,DWORD PTR [rbp-0x8]
  4012d3:	89 d0                	mov    eax,edx
  4012d5:	01 c0                	add    eax,eax
  4012d7:	01 d0                	add    eax,edx
  4012d9:	01 c0                	add    eax,eax
  4012db:	83 c0 01             	add    eax,0x1
  4012de:	48 98                	cdqe   
  4012e0:	0f b6 84 05 50 ff ff 	movzx  eax,BYTE PTR [rbp+rax*1-0xb0]
  4012e7:	ff 
  4012e8:	3c 87                	cmp    al,0x87
  4012ea:	74 44                	je     401330 <main+0x135>
  4012ec:	8b 55 f8             	mov    edx,DWORD PTR [rbp-0x8]
  4012ef:	89 d0                	mov    eax,edx
  4012f1:	01 c0                	add    eax,eax
  4012f3:	01 d0                	add    eax,edx
  4012f5:	01 c0                	add    eax,eax
  4012f7:	83 c0 02             	add    eax,0x2
  4012fa:	48 98                	cdqe   
  4012fc:	0f b6 84 05 50 ff ff 	movzx  eax,BYTE PTR [rbp+rax*1-0xb0]
  401303:	ff 
  401304:	3c 63                	cmp    al,0x63
  401306:	74 28                	je     401330 <main+0x135>
  401308:	48 8d 05 09 0e 00 00 	lea    rax,[rip+0xe09]        # 402118 <_IO_stdin_used+0x118>
  40130f:	48 89 c7             	mov    rdi,rax
  401312:	e8 59 fd ff ff       	call   401070 <puts@plt>
  401317:	48 8d 05 1b 0e 00 00 	lea    rax,[rip+0xe1b]        # 402139 <_IO_stdin_used+0x139>
  40131e:	48 89 c7             	mov    rdi,rax
  401321:	e8 4a fd ff ff       	call   401070 <puts@plt>
  401326:	bf 00 00 00 00       	mov    edi,0x0
  40132b:	e8 70 fd ff ff       	call   4010a0 <exit@plt>
  401330:	83 45 f8 01          	add    DWORD PTR [rbp-0x8],0x1
  401334:	83 7d f8 18          	cmp    DWORD PTR [rbp-0x8],0x18
  401338:	0f 8e 79 ff ff ff    	jle    4012b7 <main+0xbc>
  40133e:	48 8d 85 50 ff ff ff 	lea    rax,[rbp-0xb0]
  401345:	48 89 45 f0          	mov    QWORD PTR [rbp-0x10],rax
  401349:	48 8b 55 f0          	mov    rdx,QWORD PTR [rbp-0x10]
  40134d:	b8 00 00 00 00       	mov    eax,0x0
  401352:	ff d2                	call   rdx
  401354:	b8 00 00 00 00       	mov    eax,0x0
  401359:	c9                   	leave  
  40135a:	c3                   	ret    

Disassembly of section .fini:

000000000040135c <_fini>:
  40135c:	f3 0f 1e fa          	endbr64 
  401360:	48 83 ec 08          	sub    rsp,0x8
  401364:	48 83 c4 08          	add    rsp,0x8
  401368:	c3                   	ret    
